target datalayout = "e-m:e-p270:32:32-p271:32:32-p272:64:64-i64:64-i128:128-f80:128-n8:16:32:64-S128"
target triple = "x86_64-pc-linux-gnu"

@.str.1545 = private unnamed_addr constant [12 x i8] c"Wrong Value\00", align 1
@.str.1546 = private unnamed_addr constant [12 x i8] c"%s from now\00", align 1

; Function Attrs: null_pointer_is_valid sspstrong uwtable
define internal void @decode_zcl_ota_req_time(ptr noundef %0, i32 noundef %1) #0 {
  %3 = alloca ptr, align 8
  %4 = alloca i32, align 4
  %5 = alloca ptr, align 8
  store ptr %0, ptr %3, align 8
  store i32 %1, ptr %4, align 4
  %6 = load i32, ptr %4, align 4
  %7 = icmp eq i32 %6, -1
  br i1 %7, label %8, label %13

8:                                                ; preds = %2
  %9 = load ptr, ptr %3, align 8
  %10 = load ptr, ptr %3, align 8
  %11 = call i64 @llvm.objectsize.i64.p0(ptr %10, i1 false, i1 true, i1 true)
  %12 = call i32 (ptr, i64, i32, i64, ptr, ...) @__snprintf_chk(ptr noundef %9, i64 noundef 240, i32 noundef 2, i64 noundef %11, ptr noundef @.str.1545)
  br label %22

13:                                               ; preds = %2
  call void @llvm.lifetime.start.p0(i64 8, ptr %5) #7
  %14 = load i32, ptr %4, align 4
  %15 = call ptr @signed_time_secs_to_str(ptr noundef null, i32 noundef %14)
  store ptr %15, ptr %5, align 8
  %16 = load ptr, ptr %3, align 8
  %17 = load ptr, ptr %3, align 8
  %18 = call i64 @llvm.objectsize.i64.p0(ptr %17, i1 false, i1 true, i1 true)
  %19 = load ptr, ptr %5, align 8
  %20 = call i32 (ptr, i64, i32, i64, ptr, ...) @__snprintf_chk(ptr noundef %16, i64 noundef 240, i32 noundef 2, i64 noundef %18, ptr noundef @.str.1546, ptr noundef %19)
  %21 = load ptr, ptr %5, align 8
  call void @wmem_free(ptr noundef null, ptr noundef %21)
  call void @llvm.lifetime.end.p0(i64 8, ptr %5) #7
  br label %22

22:                                               ; preds = %13, %8
  ret void
}